target datalayout = "e-m:e-p270:32:32-p271:32:32-p272:64:64-i64:64-i128:128-f80:128-n8:16:32:64-S128"
target triple = "x86_64-pc-linux-gnu"

@.str.40 = private unnamed_addr constant [8 x i8] c"NoDebug\00", align 1
@.str.41 = private unnamed_addr constant [10 x i8] c"FullDebug\00", align 1
@.str.42 = private unnamed_addr constant [15 x i8] c"LineTablesOnly\00", align 1
@.str.43 = private unnamed_addr constant [20 x i8] c"DebugDirectivesOnly\00", align 1

; Function Attrs: mustprogress nounwind uwtable
define dso_local noundef ptr @_ZN4llvm13DICompileUnit18emissionKindStringENS0_17DebugEmissionKindE(i32 noundef %0) #1 align 2 {
  %2 = alloca ptr, align 8
  %3 = alloca i32, align 4
  store i32 %0, ptr %3, align 4
  %4 = load i32, ptr %3, align 4
  switch i32 %4, label %9 [
    i32 0, label %5
    i32 1, label %6
    i32 2, label %7
    i32 3, label %8
  ]

5:                                                ; preds = %1
  store ptr @.str.40, ptr %2, align 8
  br label %10

6:                                                ; preds = %1
  store ptr @.str.41, ptr %2, align 8
  br label %10

7:                                                ; preds = %1
  store ptr @.str.42, ptr %2, align 8
  br label %10

8:                                                ; preds = %1
  store ptr @.str.43, ptr %2, align 8
  br label %10

9:                                                ; preds = %1
  store ptr null, ptr %2, align 8
  br label %10

10:                                               ; preds = %9, %8, %7, %6, %5
  %11 = load ptr, ptr %2, align 8
  ret ptr %11
}